#include <math.h>
#include <stdio.h>
#include <stdlib.h>
#include <string.h>

int main()
{
  int n,a;
  scanf("%d",&n);
  
  for(int i=1;i<1000;i++){
    if(n!=1&&n%2==0){
      a=n;
      n=n/2;
      printf("%d/2=%d\n",a,n);
    }else if(n!=1&&n%2!=0){
      a=n;
      n=n*3+1;
      printf("%d*3+1=%d\n",a,n);
    }else if(n==1){
      printf("End\n");
      break;
    }
  }
  
  return 0;
}